target datalayout = "e-m:e-p270:32:32-p271:32:32-p272:64:64-i64:64-i128:128-f80:128-n8:16:32:64-S128"
target triple = "x86_64-pc-linux-gnu"

%struct._priv_exr_context_t = type { i8, i8, i8, i8, i8, i8, i8, i8, %struct.exr_attr_string_t, %struct.exr_attr_string_t, ptr, ptr, ptr, ptr, ptr, ptr, ptr, ptr, i32, i32, i32, i32, i32, float, ptr, ptr, ptr, i64, ptr, ptr, i64, i32, i32, i32, i32, %struct._priv_exr_part_t, ptr, ptr, %struct.exr_attribute_list, %union.pthread_mutex_t, i8, i8, [2 x i8], i32 }
%struct.exr_attr_string_t = type { i32, i32, ptr }
%struct._priv_exr_part_t = type { i32, i32, %struct.exr_attribute_list, ptr, ptr, ptr, ptr, ptr, ptr, ptr, ptr, ptr, ptr, ptr, ptr, ptr, ptr, %struct.exr_attr_box2i_t, %struct.exr_attr_box2i_t, i32, i32, i32, float, i32, i32, ptr, ptr, ptr, ptr, i64, i16, i16, i32, i64, i64 }
%struct.exr_attr_box2i_t = type { %struct.exr_attr_v2i_t, %struct.exr_attr_v2i_t }
%struct.exr_attr_v2i_t = type { i32, i32 }
%struct.exr_attribute_list = type { i32, i32, ptr, ptr }
%union.pthread_mutex_t = type { %struct.__pthread_mutex_s }
%struct.__pthread_mutex_s = type { i32, i32, i32, i32, i32, i16, i16, %struct.__pthread_internal_list }
%struct.__pthread_internal_list = type { ptr, ptr }
%struct.exr_attribute_t = type { ptr, ptr, i8, i8, [2 x i8], i32, %union.anon }
%union.anon = type { double }
%struct.exr_attr_chlist_t = type { i32, i32, ptr }
%struct.exr_attr_chlist_entry_t = type { %struct.exr_attr_string_t, i32, i8, [3 x i8], i32, i32 }

; Function Attrs: nounwind uwtable
define hidden i32 @internal_exr_calc_header_version_flags(ptr noundef %0, ptr noundef %1) #0 {
  %3 = alloca ptr, align 8
  %4 = alloca ptr, align 8
  %5 = alloca i32, align 4
  %6 = alloca i32, align 4
  %7 = alloca i32, align 4
  %8 = alloca ptr, align 8
  %9 = alloca i32, align 4
  %10 = alloca ptr, align 8
  %11 = alloca ptr, align 8
  %12 = alloca i32, align 4
  %13 = alloca i32, align 4
  %14 = alloca ptr, align 8
  store ptr %0, ptr %3, align 8, !tbaa !3
  store ptr %1, ptr %4, align 8, !tbaa !8
  %15 = load ptr, ptr %4, align 8, !tbaa !8
  store i32 2, ptr %15, align 4, !tbaa !10
  %16 = load ptr, ptr %3, align 8, !tbaa !3
  %17 = getelementptr inbounds nuw %struct._priv_exr_context_t, ptr %16, i32 0, i32 5
  %18 = load i8, ptr %17, align 1, !tbaa !12
  %19 = icmp ne i8 %18, 0
  br i1 %19, label %20, label %24

20:                                               ; preds = %2
  %21 = load ptr, ptr %4, align 8, !tbaa !8
  %22 = load i32, ptr %21, align 4, !tbaa !10
  %23 = or i32 %22, 4096
  store i32 %23, ptr %21, align 4, !tbaa !10
  br label %24

24:                                               ; preds = %20, %2
  %25 = load ptr, ptr %3, align 8, !tbaa !3
  %26 = getelementptr inbounds nuw %struct._priv_exr_context_t, ptr %25, i32 0, i32 2
  %27 = load i8, ptr %26, align 2, !tbaa !26
  %28 = zext i8 %27 to i32
  %29 = icmp sgt i32 %28, 31
  br i1 %29, label %30, label %142

30:                                               ; preds = %24
  call void @llvm.lifetime.start.p0(i64 4, ptr %5) #6
  store i32 0, ptr %5, align 4, !tbaa !10
  call void @llvm.lifetime.start.p0(i64 4, ptr %6) #6
  store i32 0, ptr %6, align 4, !tbaa !10
  br label %31

31:                                               ; preds = %130, %30
  %32 = load i32, ptr %6, align 4, !tbaa !10
  %33 = load ptr, ptr %3, align 8, !tbaa !3
  %34 = getelementptr inbounds nuw %struct._priv_exr_context_t, ptr %33, i32 0, i32 34
  %35 = load i32, ptr %34, align 4, !tbaa !27
  %36 = icmp slt i32 %32, %35
  br i1 %36, label %38, label %37

37:                                               ; preds = %31
  store i32 2, ptr %7, align 4
  br label %133

38:                                               ; preds = %31
  call void @llvm.lifetime.start.p0(i64 8, ptr %8) #6
  %39 = load ptr, ptr %3, align 8, !tbaa !3
  %40 = getelementptr inbounds nuw %struct._priv_exr_context_t, ptr %39, i32 0, i32 37
  %41 = load ptr, ptr %40, align 8, !tbaa !28
  %42 = load i32, ptr %6, align 4, !tbaa !10
  %43 = sext i32 %42 to i64
  %44 = getelementptr inbounds ptr, ptr %41, i64 %43
  %45 = load ptr, ptr %44, align 8, !tbaa !29
  store ptr %45, ptr %8, align 8, !tbaa !29
  call void @llvm.lifetime.start.p0(i64 4, ptr %9) #6
  store i32 0, ptr %9, align 4, !tbaa !10
  br label %46

46:                                               ; preds = %118, %38
  %47 = load i32, ptr %9, align 4, !tbaa !10
  %48 = load ptr, ptr %8, align 8, !tbaa !29
  %49 = getelementptr inbounds nuw %struct._priv_exr_part_t, ptr %48, i32 0, i32 2
  %50 = getelementptr inbounds nuw %struct.exr_attribute_list, ptr %49, i32 0, i32 0
  %51 = load i32, ptr %50, align 8, !tbaa !30
  %52 = icmp slt i32 %47, %51
  br i1 %52, label %54, label %53

53:                                               ; preds = %46
  store i32 5, ptr %7, align 4
  br label %121

54:                                               ; preds = %46
  call void @llvm.lifetime.start.p0(i64 8, ptr %10) #6
  %55 = load ptr, ptr %8, align 8, !tbaa !29
  %56 = getelementptr inbounds nuw %struct._priv_exr_part_t, ptr %55, i32 0, i32 2
  %57 = getelementptr inbounds nuw %struct.exr_attribute_list, ptr %56, i32 0, i32 2
  %58 = load ptr, ptr %57, align 8, !tbaa !31
  %59 = load i32, ptr %9, align 4, !tbaa !10
  %60 = sext i32 %59 to i64
  %61 = getelementptr inbounds ptr, ptr %58, i64 %60
  %62 = load ptr, ptr %61, align 8, !tbaa !32
  store ptr %62, ptr %10, align 8, !tbaa !32
  %63 = load ptr, ptr %10, align 8, !tbaa !32
  %64 = getelementptr inbounds nuw %struct.exr_attribute_t, ptr %63, i32 0, i32 2
  %65 = load i8, ptr %64, align 8, !tbaa !33
  %66 = zext i8 %65 to i32
  %67 = icmp sgt i32 %66, 31
  br i1 %67, label %74, label %68

68:                                               ; preds = %54
  %69 = load ptr, ptr %10, align 8, !tbaa !32
  %70 = getelementptr inbounds nuw %struct.exr_attribute_t, ptr %69, i32 0, i32 3
  %71 = load i8, ptr %70, align 1, !tbaa !35
  %72 = zext i8 %71 to i32
  %73 = icmp sgt i32 %72, 31
  br i1 %73, label %74, label %75

74:                                               ; preds = %68, %54
  store i32 1, ptr %5, align 4, !tbaa !10
  store i32 5, ptr %7, align 4
  br label %115

75:                                               ; preds = %68
  %76 = load ptr, ptr %10, align 8, !tbaa !32
  %77 = getelementptr inbounds nuw %struct.exr_attribute_t, ptr %76, i32 0, i32 5
  %78 = load i32, ptr %77, align 4, !tbaa !36
  %79 = icmp eq i32 %78, 3
  br i1 %79, label %80, label %114

80:                                               ; preds = %75
  call void @llvm.lifetime.start.p0(i64 8, ptr %11) #6
  %81 = load ptr, ptr %10, align 8, !tbaa !32
  %82 = getelementptr inbounds nuw %struct.exr_attribute_t, ptr %81, i32 0, i32 6
  %83 = load ptr, ptr %82, align 8, !tbaa !37
  store ptr %83, ptr %11, align 8, !tbaa !32
  call void @llvm.lifetime.start.p0(i64 4, ptr %12) #6
  %84 = load ptr, ptr %11, align 8, !tbaa !32
  %85 = getelementptr inbounds nuw %struct.exr_attr_chlist_t, ptr %84, i32 0, i32 0
  %86 = load i32, ptr %85, align 8, !tbaa !38
  store i32 %86, ptr %12, align 4, !tbaa !10
  call void @llvm.lifetime.start.p0(i64 4, ptr %13) #6
  store i32 0, ptr %13, align 4, !tbaa !10
  br label %87

87:                                               ; preds = %109, %80
  %88 = load i32, ptr %13, align 4, !tbaa !10
  %89 = load i32, ptr %12, align 4, !tbaa !10
  %90 = icmp slt i32 %88, %89
  br i1 %90, label %92, label %91

91:                                               ; preds = %87
  store i32 8, ptr %7, align 4
  br label %112

92:                                               ; preds = %87
  call void @llvm.lifetime.start.p0(i64 8, ptr %14) #6
  %93 = load ptr, ptr %11, align 8, !tbaa !32
  %94 = getelementptr inbounds nuw %struct.exr_attr_chlist_t, ptr %93, i32 0, i32 2
  %95 = load ptr, ptr %94, align 8, !tbaa !40
  %96 = load i32, ptr %13, align 4, !tbaa !10
  %97 = sext i32 %96 to i64
  %98 = getelementptr inbounds %struct.exr_attr_chlist_entry_t, ptr %95, i64 %97
  store ptr %98, ptr %14, align 8, !tbaa !32
  %99 = load ptr, ptr %14, align 8, !tbaa !32
  %100 = getelementptr inbounds nuw %struct.exr_attr_chlist_entry_t, ptr %99, i32 0, i32 0
  %101 = getelementptr inbounds nuw %struct.exr_attr_string_t, ptr %100, i32 0, i32 0
  %102 = load i32, ptr %101, align 8, !tbaa !41
  %103 = icmp sgt i32 %102, 31
  br i1 %103, label %104, label %105

104:                                              ; preds = %92
  store i32 1, ptr %5, align 4, !tbaa !10
  store i32 8, ptr %7, align 4
  br label %106

105:                                              ; preds = %92
  store i32 0, ptr %7, align 4
  br label %106

106:                                              ; preds = %105, %104
  call void @llvm.lifetime.end.p0(i64 8, ptr %14) #6
  %107 = load i32, ptr %7, align 4
  switch i32 %107, label %112 [
    i32 0, label %108
  ]

108:                                              ; preds = %106
  br label %109

109:                                              ; preds = %108
  %110 = load i32, ptr %13, align 4, !tbaa !10
  %111 = add nsw i32 %110, 1
  store i32 %111, ptr %13, align 4, !tbaa !10
  br label %87, !llvm.loop !43

112:                                              ; preds = %106, %91
  call void @llvm.lifetime.end.p0(i64 4, ptr %13) #6
  br label %113

113:                                              ; preds = %112
  call void @llvm.lifetime.end.p0(i64 4, ptr %12) #6
  call void @llvm.lifetime.end.p0(i64 8, ptr %11) #6
  br label %114

114:                                              ; preds = %113, %75
  store i32 0, ptr %7, align 4
  br label %115

115:                                              ; preds = %114, %74
  call void @llvm.lifetime.end.p0(i64 8, ptr %10) #6
  %116 = load i32, ptr %7, align 4
  switch i32 %116, label %121 [
    i32 0, label %117
  ]

117:                                              ; preds = %115
  br label %118

118:                                              ; preds = %117
  %119 = load i32, ptr %9, align 4, !tbaa !10
  %120 = add nsw i32 %119, 1
  store i32 %120, ptr %9, align 4, !tbaa !10
  br label %46, !llvm.loop !45

121:                                              ; preds = %115, %53
  call void @llvm.lifetime.end.p0(i64 4, ptr %9) #6
  br label %122

122:                                              ; preds = %121
  %123 = load i32, ptr %5, align 4, !tbaa !10
  %124 = icmp ne i32 %123, 0
  br i1 %124, label %125, label %126

125:                                              ; preds = %122
  store i32 2, ptr %7, align 4
  br label %127

126:                                              ; preds = %122
  store i32 0, ptr %7, align 4
  br label %127

127:                                              ; preds = %126, %125
  call void @llvm.lifetime.end.p0(i64 8, ptr %8) #6
  %128 = load i32, ptr %7, align 4
  switch i32 %128, label %133 [
    i32 0, label %129
  ]

129:                                              ; preds = %127
  br label %130

130:                                              ; preds = %129
  %131 = load i32, ptr %6, align 4, !tbaa !10
  %132 = add nsw i32 %131, 1
  store i32 %132, ptr %6, align 4, !tbaa !10
  br label %31, !llvm.loop !46

133:                                              ; preds = %127, %37
  call void @llvm.lifetime.end.p0(i64 4, ptr %6) #6
  br label %134

134:                                              ; preds = %133
  %135 = load i32, ptr %5, align 4, !tbaa !10
  %136 = icmp ne i32 %135, 0
  br i1 %136, label %137, label %141

137:                                              ; preds = %134
  %138 = load ptr, ptr %4, align 8, !tbaa !8
  %139 = load i32, ptr %138, align 4, !tbaa !10
  %140 = or i32 %139, 1024
  store i32 %140, ptr %138, align 4, !tbaa !10
  br label %141

141:                                              ; preds = %137, %134
  call void @llvm.lifetime.end.p0(i64 4, ptr %5) #6
  br label %142

142:                                              ; preds = %141, %24
  %143 = load ptr, ptr %3, align 8, !tbaa !3
  %144 = getelementptr inbounds nuw %struct._priv_exr_context_t, ptr %143, i32 0, i32 4
  %145 = load i8, ptr %144, align 4, !tbaa !47
  %146 = icmp ne i8 %145, 0
  br i1 %146, label %147, label %151

147:                                              ; preds = %142
  %148 = load ptr, ptr %4, align 8, !tbaa !8
  %149 = load i32, ptr %148, align 4, !tbaa !10
  %150 = or i32 %149, 2048
  store i32 %150, ptr %148, align 4, !tbaa !10
  br label %151

151:                                              ; preds = %147, %142
  %152 = load ptr, ptr %3, align 8, !tbaa !3
  %153 = getelementptr inbounds nuw %struct._priv_exr_context_t, ptr %152, i32 0, i32 3
  %154 = load i8, ptr %153, align 1, !tbaa !48
  %155 = icmp ne i8 %154, 0
  br i1 %155, label %156, label %160

156:                                              ; preds = %151
  %157 = load ptr, ptr %4, align 8, !tbaa !8
  %158 = load i32, ptr %157, align 4, !tbaa !10
  %159 = or i32 %158, 512
  store i32 %159, ptr %157, align 4, !tbaa !10
  br label %160

160:                                              ; preds = %156, %151
  ret i32 0
}