; Function Attrs: nofree norecurse nosync nounwind memory(read, argmem: readwrite, inaccessiblemem: none) uwtable
define hidden noundef i32 @internal_exr_calc_header_version_flags(ptr noundef readonly captures(none) %0, ptr noundef writeonly captures(none) initializes((0, 4)) %1) local_unnamed_addr #0 {
  %3 = getelementptr inbounds nuw i8, ptr %0, i64 5
  %4 = load i8, ptr %3, align 1, !tbaa !3
  %.not = icmp eq i8 %4, 0
  %spec.store.select = select i1 %.not, i32 2, i32 4098
  store i32 %spec.store.select, ptr %1, align 4
  %5 = getelementptr inbounds nuw i8, ptr %0, i64 2
  %6 = load i8, ptr %5, align 2, !tbaa !22
  %7 = icmp ugt i8 %6, 31
  br i1 %7, label %.preheader, label %.critedge

.preheader:                                       ; preds = %2
  %8 = getelementptr inbounds nuw i8, ptr %0, i64 196
  %9 = load i32, ptr %8, align 4, !tbaa !23
  %.not4462 = icmp sgt i32 %9, 0
  br i1 %.not4462, label %.lr.ph64, label %.critedge

.lr.ph64:                                         ; preds = %.preheader
  %10 = getelementptr inbounds nuw i8, ptr %0, i64 472
  %11 = load ptr, ptr %10, align 8, !tbaa !24
  %wide.trip.count75 = zext nneg i32 %9 to i64
  br label %12

._crit_edge.thread:                               ; preds = %12, %._crit_edge
  %indvars.iv.next73 = add nuw nsw i64 %indvars.iv72, 1
  %exitcond76.not = icmp eq i64 %indvars.iv.next73, %wide.trip.count75
  br i1 %exitcond76.not, label %.critedge, label %12, !llvm.loop !25

12:                                               ; preds = %.lr.ph64, %._crit_edge.thread
  %indvars.iv72 = phi i64 [ 0, %.lr.ph64 ], [ %indvars.iv.next73, %._crit_edge.thread ]
  %13 = getelementptr inbounds nuw ptr, ptr %11, i64 %indvars.iv72
  %14 = load ptr, ptr %13, align 8, !tbaa !27
  %15 = getelementptr inbounds nuw i8, ptr %14, i64 8
  %16 = load i32, ptr %15, align 8, !tbaa !28
  %17 = icmp sgt i32 %16, 0
  br i1 %17, label %.lr.ph61, label %._crit_edge.thread

.lr.ph61:                                         ; preds = %12
  %18 = getelementptr inbounds nuw i8, ptr %14, i64 16
  %19 = load ptr, ptr %18, align 8, !tbaa !29
  %wide.trip.count70 = zext nneg i32 %16 to i64
  br label %.outer

.outer:                                           ; preds = %.loopexit.thread, %.lr.ph61
  %indvars.iv67.ph = phi i64 [ %indvars.iv.next6879, %.loopexit.thread ], [ 0, %.lr.ph61 ]
  %20 = phi i1 [ false, %.loopexit.thread ], [ true, %.lr.ph61 ]
  br label %21

21:                                               ; preds = %.outer, %.loopexit
  %indvars.iv67 = phi i64 [ %indvars.iv.next68, %.loopexit ], [ %indvars.iv67.ph, %.outer ]
  %22 = getelementptr inbounds nuw ptr, ptr %19, i64 %indvars.iv67
  %23 = load ptr, ptr %22, align 8, !tbaa !30
  %24 = getelementptr inbounds nuw i8, ptr %23, i64 16
  %25 = load i8, ptr %24, align 8, !tbaa !31
  %26 = icmp ugt i8 %25, 31
  br i1 %26, label %.thread51, label %27

27:                                               ; preds = %21
  %28 = getelementptr inbounds nuw i8, ptr %23, i64 17
  %29 = load i8, ptr %28, align 1, !tbaa !33
  %30 = icmp ugt i8 %29, 31
  br i1 %30, label %.thread51, label %31

31:                                               ; preds = %27
  %32 = getelementptr inbounds nuw i8, ptr %23, i64 20
  %33 = load i32, ptr %32, align 4, !tbaa !34
  %34 = icmp eq i32 %33, 3
  br i1 %34, label %35, label %.loopexit

35:                                               ; preds = %31
  %36 = getelementptr inbounds nuw i8, ptr %23, i64 24
  %37 = load ptr, ptr %36, align 8, !tbaa !35
  %38 = load i32, ptr %37, align 8, !tbaa !36
  %39 = icmp sgt i32 %38, 0
  br i1 %39, label %.lr.ph, label %.loopexit

.lr.ph:                                           ; preds = %35
  %40 = getelementptr inbounds nuw i8, ptr %37, i64 8
  %41 = load ptr, ptr %40, align 8, !tbaa !38
  %wide.trip.count = zext nneg i32 %38 to i64
  br label %43

42:                                               ; preds = %43
  %indvars.iv.next = add nuw nsw i64 %indvars.iv, 1
  %exitcond.not = icmp eq i64 %indvars.iv.next, %wide.trip.count
  br i1 %exitcond.not, label %.loopexit, label %43, !llvm.loop !39

43:                                               ; preds = %.lr.ph, %42
  %indvars.iv = phi i64 [ 0, %.lr.ph ], [ %indvars.iv.next, %42 ]
  %44 = getelementptr inbounds nuw %struct.exr_attr_chlist_entry_t, ptr %41, i64 %indvars.iv
  %45 = load i32, ptr %44, align 8, !tbaa !40
  %46 = icmp slt i32 %45, 32
  br i1 %46, label %42, label %.loopexit.thread

.loopexit:                                        ; preds = %42, %35, %31
  %indvars.iv.next68 = add nuw nsw i64 %indvars.iv67, 1
  %exitcond71.not = icmp eq i64 %indvars.iv.next68, %wide.trip.count70
  br i1 %exitcond71.not, label %._crit_edge, label %21, !llvm.loop !42

.loopexit.thread:                                 ; preds = %43
  %indvars.iv.next6879 = add nuw nsw i64 %indvars.iv67, 1
  %exitcond71.not80 = icmp eq i64 %indvars.iv.next6879, %wide.trip.count70
  br i1 %exitcond71.not80, label %.thread51, label %.outer, !llvm.loop !42

._crit_edge:                                      ; preds = %.loopexit
  br i1 %20, label %._crit_edge.thread, label %.thread51

.thread51:                                        ; preds = %._crit_edge, %.loopexit.thread, %21, %27
  %47 = or disjoint i32 %spec.store.select, 1024
  store i32 %47, ptr %1, align 4, !tbaa !43
  br label %.critedge

.critedge:                                        ; preds = %._crit_edge.thread, %.preheader, %.thread51, %2
  %48 = phi i32 [ %spec.store.select, %.preheader ], [ %47, %.thread51 ], [ %spec.store.select, %2 ], [ %spec.store.select, %._crit_edge.thread ]
  %49 = getelementptr inbounds nuw i8, ptr %0, i64 4
  %50 = load i8, ptr %49, align 4, !tbaa !44
  %.not45 = icmp eq i8 %50, 0
  br i1 %.not45, label %53, label %51

51:                                               ; preds = %.critedge
  %52 = or i32 %48, 2048
  store i32 %52, ptr %1, align 4, !tbaa !43
  br label %53

53:                                               ; preds = %51, %.critedge
  %54 = phi i32 [ %52, %51 ], [ %48, %.critedge ]
  %55 = getelementptr inbounds nuw i8, ptr %0, i64 3
  %56 = load i8, ptr %55, align 1, !tbaa !45
  %.not46 = icmp eq i8 %56, 0
  br i1 %.not46, label %59, label %57

57:                                               ; preds = %53
  %58 = or i32 %54, 512
  store i32 %58, ptr %1, align 4, !tbaa !43
  br label %59

59:                                               ; preds = %57, %53
  ret i32 0
}